target datalayout = "e-m:e-p270:32:32-p271:32:32-p272:64:64-i64:64-i128:128-f80:128-n8:16:32:64-S128"
target triple = "x86_64-pc-linux-gnu"

; Function Attrs: nounwind uwtable
define internal i32 @get_neutrals_scale16(i32 noundef %0, i32 noundef %1, i32 noundef %2, i32 noundef %3, i32 noundef %4) #0 {
  %6 = alloca i32, align 4
  %7 = alloca i32, align 4
  %8 = alloca i32, align 4
  %9 = alloca i32, align 4
  %10 = alloca i32, align 4
  store i32 %0, ptr %6, align 4, !tbaa !37
  store i32 %1, ptr %7, align 4, !tbaa !37
  store i32 %2, ptr %8, align 4, !tbaa !37
  store i32 %3, ptr %9, align 4, !tbaa !37
  store i32 %4, ptr %10, align 4, !tbaa !37
  %11 = load i32, ptr %10, align 4, !tbaa !37
  %12 = shl i32 %11, 1
  %13 = sub nsw i32 %12, 65535
  %14 = call i32 @llvm.abs.i32(i32 %13, i1 true)
  %15 = load i32, ptr %9, align 4, !tbaa !37
  %16 = shl i32 %15, 1
  %17 = sub nsw i32 %16, 65535
  %18 = call i32 @llvm.abs.i32(i32 %17, i1 true)
  %19 = add nsw i32 %14, %18
  %20 = sub nsw i32 131070, %19
  %21 = add nsw i32 %20, 1
  %22 = ashr i32 %21, 1
  ret i32 %22
}